; Function Attrs: uwtable
define dso_local { i32, ptr } @_ZThn16_N3net14QuicConnection18GetUpdatedAckFrameEv(ptr noundef %this) unnamed_addr #13 align 2 {
entry:
  %received_packet_manager_.i = getelementptr inbounds i8, ptr %this, i64 848
  %clock_.i = getelementptr inbounds i8, ptr %this, i64 464
  %0 = load ptr, ptr %clock_.i, align 8
  %vtable.i = load ptr, ptr %0, align 8
  %vfn.i = getelementptr inbounds i8, ptr %vtable.i, i64 16
  %1 = load ptr, ptr %vfn.i, align 8
  %call.i = tail call i64 %1(ptr noundef nonnull align 8 dereferenceable(8) %0)
  %call3.i = tail call { i32, ptr } @_ZN3net25QuicReceivedPacketManager18GetUpdatedAckFrameENS_8QuicTimeE(ptr noundef nonnull align 8 dereferenceable(248) %received_packet_manager_.i, i64 %call.i)
  ret { i32, ptr } %call3.i
}